                        .module main.c
                        .area text
 000000                 .dbfile "C:\Work\newtech\Smart.IO\MCU-App\Dimmer Demo ST32F411-JumpStartC\STM32F411-ICCV8\main.c"
                        .area data
 000000                 .dbfile "C:\Work\newtech\Smart.IO\MCU-App\Dimmer Demo ST32F411-JumpStartC\STM32F411-ICCV8\main.c"
                        .align4
 000000         _connected#i::
 000000                 .blkb 4
                        .area idata(rom)
                        .align4
 000000 00000000        .long 0
                        .area data
 000004                 .dbfile "C:\Work\newtech\Smart.IO\MCU-App\Dimmer Demo ST32F411-JumpStartC\STM32F411-ICCV8\main.c"
 000004                 .dbsym e connected _connected#i I
                        .align4
 000004         _cached#i:
 000004                 .blkb 4
                        .area idata(rom)
                        .align4
 000004 00000000        .long 0
                        .area data
 000008                 .dbfile "C:\Work\newtech\Smart.IO\MCU-App\Dimmer Demo ST32F411-JumpStartC\STM32F411-ICCV8\main.c"
 000008                 .dbsym s cached _cached#i I
                        .align4
 000008         _current_light_value#i:
 000008                 .blkb 4
                        .area idata(rom)
                        .align4
 000008 32000000        .long 50
                        .area data
 00000C                 .dbfile "C:\Work\newtech\Smart.IO\MCU-App\Dimmer Demo ST32F411-JumpStartC\STM32F411-ICCV8\main.c"
 00000C                 .dbsym s current_light_value _current_light_value#i I
                        .area text
 000000                 .dbfile "C:\Work\newtech\Smart.IO\MCU-App\Dimmer Demo ST32F411-JumpStartC\STM32F411-ICCV8\main.c"
 000000                 .dbfunc e my_printf _my_printf#FiPcz fI 39 1915315685
 000000         ;            fmt -> R11,0
 000000         _my_printf#FiPcz::
 000000                 .dbprevlr -1
 000000                 .dbblock 39
 000000                 .dbblkend 39
 000000         L19:
 000000 7047            bx LR
 000002                 .dbfuncend
 000002                 .dbsym l fmt 0 pc p0v
 000002                 .dbstacksize 0
 000002                 .dbfunc e Button1 _Button1#Fvt fV 41 4324572
 000002         ;            val -> R5
 000002         _Button1#Fvt::
 000002                 .dbprevlr 12
 000002 2DE93048        push {R4,R5,R11,LR}
 000006 EB46            mov R11,R13
 000008 0546            mov R5,R0
 00000A                 .dbblock 42
 00000A                 .dbline 43
 00000A 1548            ldr R0,LIT_Button1+12
 00000C A9B2            uxth R1,R5
 00000E FFF7F7FF        bl _my_printf#FiPcz
 000012                 .dbline 44
 000012 ACB2            uxth R4,R5
 000014 64B9            cbnz R4,L22
 000016                 .dbline 46
 000016 1048            ldr R0,LIT_Button1+4
 000018 00F000F8        bl __Xm_11_JSAPI_TIMER7_Disable#FvPus11_JSAPI_TIMER
 00001C                 .dbline 47
 00001C 0F48            ldr R0,LIT_Button1+8
 00001E 0221            movs R1,#2
 000020 0222            movs R2,#2
 000022 00F000F8        bl __Xm_10_JSAPI_GPIO10_MakeOutput#FvPus10_JSAPI_GPIOjh
 000026                 .dbline 48
 000026 0D48            ldr R0,LIT_Button1+8
 000028 0221            movs R1,#2
 00002A 00F000F8        bl __Xm_10_JSAPI_GPIO5_Clear#FvPus10_JSAPI_GPIOj
 00002E                 .dbline 49
 00002E 0EE0            b L23
 000030         L22:
 000030                 .dbline 52
 000030 0A48            ldr R0,LIT_Button1+8
 000032 0221            movs R1,#2
 000034 0122            movs R2,#1
 000036 0223            movs R3,#2
 000038 00F000F8        bl __Xm_10_JSAPI_GPIO15_MakeAltFunction#FvPus10_JSAPI_GPIOjjh
 00003C                 .dbline 53
 00003C 0648            ldr R0,LIT_Button1+4
 00003E 00F000F8        bl __Xm_11_JSAPI_TIMER6_Enable#FvPus11_JSAPI_TIMER
 000042                 .dbline 54
 000042 0548            ldr R0,LIT_Button1+4
 000044 0321            movs R1,#3
 000046 034C            ldr R4,LIT_Button1+0
 000048 2268            ldr R2,[R4,#0]
 00004A 00F000F8        bl __Xm_11_JSAPI_TIMER18_ChangePWMDutyCycle#FiPus11_JSAPI_TIMERij
 00004E         L23:
 00004E                 .dbblkend 56
 00004E         L20:
 00004E BDE83088        pop {R4,R5,R11,PC}
 000052                 .dbfuncend
                        .align4
 000054                 .LITERAL
 000054         LIT_Button1:
 000054 08000000        .long _current_light_value#i
 000058 00000000        .long _timer2#us11_JSAPI_TIMER
 00005C 00000000        .long _porta#us10_JSAPI_GPIO
 000060 DB010000        .long _21#A17_c
 000064         	.ENDLITERAL
 000064                 .dbsym r val 5 s p0
 000064                 .dbstacksize 0
 000064                 .dbfunc e Button2 _Button2#Fvt fV 58 4324572
 000064         ;            val -> R4
 000064         _Button2#Fvt::
 000064                 .dbprevlr 8
 000064 2DE91048        push {R4,R11,LR}
 000068 EB46            mov R11,R13
 00006A 0446            mov R4,R0
 00006C                 .dbblock 59
 00006C                 .dbline 60
 00006C 0248            ldr R0,LIT_Button2+0
 00006E A1B2            uxth R1,R4
 000070 FFF7C6FF        bl _my_printf#FiPcz
 000074                 .dbblkend 61
 000074         L24:
 000074 BDE81088        pop {R4,R11,PC}
 000078                 .dbfuncend
                        .align4
 000078                 .LITERAL
 000078         LIT_Button2:
 000078 CA010000        .long _25#A17_c
 00007C         	.ENDLITERAL
 00007C                 .dbsym r val 4 s p0
 00007C                 .dbstacksize 0
 00007C                 .dbfunc e OK1 _OK1#Fvt fV 63 4324572
 00007C         ;            val -> R4
 00007C         _OK1#Fvt::
 00007C                 .dbprevlr 8
 00007C 2DE91048        push {R4,R11,LR}
 000080 EB46            mov R11,R13
 000082 0446            mov R4,R0
 000084                 .dbblock 64
 000084                 .dbline 65
 000084 0248            ldr R0,LIT_OK1+0
 000086 A1B2            uxth R1,R4
 000088 FFF7BAFF        bl _my_printf#FiPcz
 00008C                 .dbblkend 66
 00008C         L26:
 00008C BDE81088        pop {R4,R11,PC}
 000090                 .dbfuncend
                        .align4
 000090                 .LITERAL
 000090         LIT_OK1:
 000090 BD010000        .long _27#A13_c
 000094         	.ENDLITERAL
 000094                 .dbsym r val 4 s p0
 000094                 .dbstacksize 0
 000094                 .dbfunc e Slider1 _Slider1#Fvt fV 68 4324572
 000094         ;            val -> R6
 000094         _Slider1#Fvt::
 000094                 .dbprevlr 16
 000094 2DE97048        push {R4,R5,R6,R11,LR}
 000098 EB46            mov R11,R13
 00009A 0646            mov R6,R0
 00009C                 .dbblock 69
 00009C                 .dbline 70
 00009C 0A48            ldr R0,LIT_Slider1+8
 00009E B1B2            uxth R1,R6
 0000A0 FFF7AEFF        bl _my_printf#FiPcz
 0000A4                 .dbline 71
 0000A4 B4B2            uxth R4,R6
 0000A6 064D            ldr R5,LIT_Slider1+0
 0000A8 2C60            str R4,[R5,#0]
 0000AA                 .dbline 72
 0000AA 0648            ldr R0,LIT_Slider1+4
 0000AC 0321            movs R1,#3
 0000AE 044C            ldr R4,LIT_Slider1+0
 0000B0 2268            ldr R2,[R4,#0]
 0000B2 00F000F8        bl __Xm_11_JSAPI_TIMER18_ChangePWMDutyCycle#FiPus11_JSAPI_TIMERij
 0000B6                 .dbline 73
 0000B6 0320            movs R0,#3
 0000B8 00F000F8        bl _SmartIO_ToggleLED#Fst
 0000BC                 .dbblkend 74
 0000BC         L28:
 0000BC BDE87088        pop {R4,R5,R6,R11,PC}
 0000C0                 .dbfuncend
                        .align4
 0000C0                 .LITERAL
 0000C0         LIT_Slider1:
 0000C0 08000000        .long _current_light_value#i
 0000C4 00000000        .long _timer2#us11_JSAPI_TIMER
 0000C8 AC010000        .long _29#A17_c
 0000CC         	.ENDLITERAL
 0000CC                 .dbsym r val 6 s p0
 0000CC                 .dbstacksize 0
 0000CC                 .dbfunc e text_entry1 _text_entry1#FvPc fV 76 4324572
 0000CC         ;              s -> R4
 0000CC         _text_entry1#FvPc::
 0000CC                 .dbprevlr 8
 0000CC 2DE91048        push {R4,R11,LR}
 0000D0 EB46            mov R11,R13
 0000D2 0446            mov R4,R0
 0000D4                 .dbblock 77
 0000D4                 .dbline 78
 0000D4 0248            ldr R0,LIT_text_entry1+0
 0000D6 2146            mov R1,R4
 0000D8 FFF792FF        bl _my_printf#FiPcz
 0000DC                 .dbblkend 79
 0000DC         L30:
 0000DC BDE81088        pop {R4,R11,PC}
 0000E0                 .dbfuncend
                        .align4
 0000E0                 .LITERAL
 0000E0         LIT_text_entry1:
 0000E0 98010000        .long _31#A20_c
 0000E4         	.ENDLITERAL
 0000E4                 .dbsym r s 4 pc p0
 0000E4                 .dbstacksize 0
 0000E4                 .dbfunc e text_entry2 _text_entry2#FvPc fV 81 4324572
 0000E4         ;              s -> R4
 0000E4         _text_entry2#FvPc::
 0000E4                 .dbprevlr 8
 0000E4 2DE91048        push {R4,R11,LR}
 0000E8 EB46            mov R11,R13
 0000EA 0446            mov R4,R0
 0000EC                 .dbblock 82
 0000EC                 .dbline 83
 0000EC 0248            ldr R0,LIT_text_entry2+0
 0000EE 2146            mov R1,R4
 0000F0 FFF786FF        bl _my_printf#FiPcz
 0000F4                 .dbblkend 84
 0000F4         L32:
 0000F4 BDE81088        pop {R4,R11,PC}
 0000F8                 .dbfuncend
                        .align4
 0000F8                 .LITERAL
 0000F8         LIT_text_entry2:
 0000F8 84010000        .long _33#A20_c
 0000FC         	.ENDLITERAL
 0000FC                 .dbsym r s 4 pc p0
 0000FC                 .dbstacksize 0
 0000FC                 .dbfunc e number_entry1 _number_entry1#FvPc fV 86 4324572
 0000FC         ;              s -> R4
 0000FC         _number_entry1#FvPc::
 0000FC                 .dbprevlr 8
 0000FC 2DE91048        push {R4,R11,LR}
 000100 EB46            mov R11,R13
 000102 0446            mov R4,R0
 000104                 .dbblock 87
 000104                 .dbline 88
 000104 0248            ldr R0,LIT_number_entry1+0
 000106 2146            mov R1,R4
 000108 FFF77AFF        bl _my_printf#FiPcz
 00010C                 .dbblkend 89
 00010C         L34:
 00010C BDE81088        pop {R4,R11,PC}
 000110                 .dbfuncend
                        .align4
 000110                 .LITERAL
 000110         LIT_number_entry1:
 000110 6F010000        .long _35#A21_c
 000114         	.ENDLITERAL
 000114                 .dbsym r s 4 pc p0
 000114                 .dbstacksize 0
 000114                 .dbfunc e password_entry1 _password_entry1#FvPc fV 90 4324572
 000114         ;              s -> R4
 000114         _password_entry1#FvPc::
 000114                 .dbprevlr 8
 000114 2DE91048        push {R4,R11,LR}
 000118 EB46            mov R11,R13
 00011A 0446            mov R4,R0
 00011C                 .dbblock 91
 00011C                 .dbline 92
 00011C 0248            ldr R0,LIT_password_entry1+0
 00011E 2146            mov R1,R4
 000120 FFF76EFF        bl _my_printf#FiPcz
 000124                 .dbblkend 93
 000124         L36:
 000124 BDE81088        pop {R4,R11,PC}
 000128                 .dbfuncend
                        .align4
 000128                 .LITERAL
 000128         LIT_password_entry1:
 000128 58010000        .long _37#A23_c
 00012C         	.ENDLITERAL
 00012C                 .dbsym r s 4 pc p0
 00012C                 .dbstacksize 0
 00012C                 .dbfunc e calendar_selector1 _calendar_selector1#FvPc fV 95 4324572
 00012C         ;              s -> R4
 00012C         _calendar_selector1#FvPc::
 00012C                 .dbprevlr 8
 00012C 2DE91048        push {R4,R11,LR}
 000130 EB46            mov R11,R13
 000132 0446            mov R4,R0
 000134                 .dbblock 96
 000134                 .dbline 97
 000134 0248            ldr R0,LIT_calendar_selector1+0
 000136 2146            mov R1,R4
 000138 FFF762FF        bl _my_printf#FiPcz
 00013C                 .dbblkend 98
 00013C         L38:
 00013C BDE81088        pop {R4,R11,PC}
 000140                 .dbfuncend
                        .align4
 000140                 .LITERAL
 000140         LIT_calendar_selector1:
 000140 41010000        .long _39#A23_c
 000144         	.ENDLITERAL
 000144                 .dbsym r s 4 pc p0
 000144                 .dbstacksize 0
 000144                 .dbfunc e number_selector1 _number_selector1#Fvj fV 99 4324572
 000144         ;              n -> R4
 000144         _number_selector1#Fvj::
 000144                 .dbprevlr 8
 000144 2DE91048        push {R4,R11,LR}
 000148 EB46            mov R11,R13
 00014A 0446            mov R4,R0
 00014C                 .dbblock 100
 00014C                 .dbline 101
 00014C 0248            ldr R0,LIT_number_selector1+0
 00014E 2146            mov R1,R4
 000150 FFF756FF        bl _my_printf#FiPcz
 000154                 .dbblkend 102
 000154         L40:
 000154 BDE81088        pop {R4,R11,PC}
 000158                 .dbfuncend
                        .align4
 000158                 .LITERAL
 000158         LIT_number_selector1:
 000158 2C010000        .long _41#A21_c
 00015C         	.ENDLITERAL
 00015C                 .dbsym r n 4 i p0
 00015C                 .dbstacksize 0
 00015C                 .dbfunc e time_selector1 _time_selector1#Fvtt fV 104 4324572
 00015C         ;             mm -> R4
 00015C         ;             hh -> R5
 00015C         _time_selector1#Fvtt::
 00015C                 .dbprevlr 12
 00015C 2DE93048        push {R4,R5,R11,LR}
 000160 EB46            mov R11,R13
 000162 0546            mov R5,R0
 000164 0C46            mov R4,R1
 000166                 .dbblock 105
 000166                 .dbline 106
 000166 0348            ldr R0,LIT_time_selector1+0
 000168 A9B2            uxth R1,R5
 00016A A2B2            uxth R2,R4
 00016C FFF748FF        bl _my_printf#FiPcz
 000170                 .dbblkend 107
 000170         L42:
 000170 BDE83088        pop {R4,R5,R11,PC}
 000174                 .dbfuncend
                        .align4
 000174                 .LITERAL
 000174         LIT_time_selector1:
 000174 16010000        .long _43#A22_c
 000178         	.ENDLITERAL
 000178                 .dbsym r mm 4 s p1
 000178                 .dbsym r hh 5 s p0
 000178                 .dbstacksize 0
 000178                 .dbfunc e time_selector2 _time_selector2#Fvtt fV 109 4324572
 000178         ;             mm -> R4
 000178         ;             hh -> R5
 000178         _time_selector2#Fvtt::
 000178                 .dbprevlr 12
 000178 2DE93048        push {R4,R5,R11,LR}
 00017C EB46            mov R11,R13
 00017E 0546            mov R5,R0
 000180 0C46            mov R4,R1
 000182                 .dbblock 110
 000182                 .dbline 111
 000182 0348            ldr R0,LIT_time_selector2+0
 000184 A9B2            uxth R1,R5
 000186 A2B2            uxth R2,R4
 000188 FFF73AFF        bl _my_printf#FiPcz
 00018C                 .dbblkend 112
 00018C         L44:
 00018C BDE83088        pop {R4,R5,R11,PC}
 000190                 .dbfuncend
                        .align4
 000190                 .LITERAL
 000190         LIT_time_selector2:
 000190 00010000        .long _45#A22_c
 000194         	.ENDLITERAL
 000194                 .dbsym r mm 4 s p1
 000194                 .dbsym r hh 5 s p0
 000194                 .dbstacksize 0
 000194                 .dbfunc e time_selector3 _time_selector3#Fvtt fV 114 4324572
 000194         ;             mm -> R4
 000194         ;             hh -> R5
 000194         _time_selector3#Fvtt::
 000194                 .dbprevlr 12
 000194 2DE93048        push {R4,R5,R11,LR}
 000198 EB46            mov R11,R13
 00019A 0546            mov R5,R0
 00019C 0C46            mov R4,R1
 00019E                 .dbblock 115
 00019E                 .dbline 116
 00019E 0348            ldr R0,LIT_time_selector3+0
 0001A0 A9B2            uxth R1,R5
 0001A2 A2B2            uxth R2,R4
 0001A4 FFF72CFF        bl _my_printf#FiPcz
 0001A8                 .dbblkend 117
 0001A8         L46:
 0001A8 BDE83088        pop {R4,R5,R11,PC}
 0001AC                 .dbfuncend
                        .align4
 0001AC                 .LITERAL
 0001AC         LIT_time_selector3:
 0001AC EA000000        .long _47#A22_c
 0001B0         	.ENDLITERAL
 0001B0                 .dbsym r mm 4 s p1
 0001B0                 .dbsym r hh 5 s p0
 0001B0                 .dbstacksize 0
 0001B0                 .dbfunc e time_selector4 _time_selector4#Fvtt fV 119 4324572
 0001B0         ;             mm -> R4
 0001B0         ;             hh -> R5
 0001B0         _time_selector4#Fvtt::
 0001B0                 .dbprevlr 12
 0001B0 2DE93048        push {R4,R5,R11,LR}
 0001B4 EB46            mov R11,R13
 0001B6 0546            mov R5,R0
 0001B8 0C46            mov R4,R1
 0001BA                 .dbblock 120
 0001BA                 .dbline 121
 0001BA 0348            ldr R0,LIT_time_selector4+0
 0001BC A9B2            uxth R1,R5
 0001BE A2B2            uxth R2,R4
 0001C0 FFF71EFF        bl _my_printf#FiPcz
 0001C4                 .dbblkend 122
 0001C4         L48:
 0001C4 BDE83088        pop {R4,R5,R11,PC}
 0001C8                 .dbfuncend
                        .align4
 0001C8                 .LITERAL
 0001C8         LIT_time_selector4:
 0001C8 D4000000        .long _49#A22_c
 0001CC         	.ENDLITERAL
 0001CC                 .dbsym r mm 4 s p1
 0001CC                 .dbsym r hh 5 s p0
 0001CC                 .dbstacksize 0
 0001CC                 .dbfunc e CreateUI _CreateUI#Fv fV 124 4324572
 0001CC         ;            u10 -> <dead>
 0001CC         ;             u6 -> <dead>
 0001CC         ;             p3 -> <dead>
 0001CC         ;             p2 -> <dead>
 0001CC         ;             p1 -> <dead>
 0001CC         ;             u2 -> R5
 0001CC         ;             u7 -> R8
 0001CC         ;             u3 -> R5
 0001CC         ;             p0 -> R11,2
 0001CC         ;             u1 -> R5
 0001CC         ;             u9 -> R6
 0001CC         ;             u8 -> R7
 0001CC         ;             u5 -> R9
 0001CC         ;             u4 -> R10
 0001CC         ;             u0 -> R6
 0001CC         _CreateUI#Fv::
 0001CC                 .dbprevlr 36
 0001CC 2DE9F04F        push {R4,R5,R6,R7,R8,R9,R10,R11,LR}
 0001D0 ADF1040B        sub R11,R13,#4
 0001D4 85B0            sub R13,R13,#20
 0001D6                 .dbblock 125
 0001D6                 .dbline 129
 0001D6 0120            movs R0,#1
 0001D8 0321            movs R1,#3
 0001DA 00F000F8        bl _SmartIO_LoadCache#Fsjt
 0001DE                 .dbline 130
 0001DE 00F000F8        bl _SmartIO_MakePage#Ftv
 0001E2 ABF80200        strh R0,[R11,#+2]
 0001E6                 .dbline 131
 0001E6 5A48            ldr R0,LIT_CreateUI+56
 0001E8 00F000F8        bl _SmartIO_AppTitle#FsPc
 0001EC                 .dbline 132
 0001EC 0024            movs R4,#0
 0001EE 2046            mov R0,R4
 0001F0 2146            mov R1,R4
 0001F2 0122            movs R2,#1
 0001F4 554B            ldr R3,LIT_CreateUI+52
 0001F6 00F000F8        bl _SmartIO_MakeOnOffButton#FttttPFvtE
 0001FA 0646            mov R6,R0
 0001FC                 .dbline 133
 0001FC 5249            ldr R1,LIT_CreateUI+48
 0001FE 00F000F8        bl _SmartIO_AddText#FstPc
 000202                 .dbline 134
 000202 3046            mov R0,R6
 000204 0621            movs R1,#6
 000206 00F000F8        bl _SmartIO_SetSliceIcon#Fstt
 00020A                 .dbline 135
 00020A 0120            movs R0,#1
 00020C 0021            movs R1,#0
 00020E 1E22            movs R2,#30
 000210 4C4B            ldr R3,LIT_CreateUI+44
 000212 00F000F8        bl _SmartIO_MakeSlider#FttttPFvtE
 000216 0546            mov R5,R0
 000218                 .dbline 136
 000218 ACB2            uxth R4,R5
 00021A 641C            adds R4,R4,#1
 00021C 2046            mov R0,R4
 00021E 484C            ldr R4,LIT_CreateUI+40
 000220 2468            ldr R4,[R4,#0]
 000222 2146            mov R1,R4
 000224 00F000F8        bl _SmartIO_UpdateSlider#Fstt
 000228                 .dbline 138
 000228 B4B2            uxth R4,R6
 00022A 641C            adds R4,R4,#1
 00022C 2046            mov R0,R4
 00022E ACB2            uxth R4,R5
 000230 641C            adds R4,R4,#1
 000232 2146            mov R1,R4
 000234 0022            movs R2,#0
 000236 00F000F8        bl _SmartIO_EnableIf#Fsttz
 00023A                 .dbline 140
 00023A 0220            movs R0,#2
 00023C 00F000F8        bl _SmartIO_MakeSpacerSlice#Fti
 000240                 .dbline 141
 000240 0020            movs R0,#0
 000242 0121            movs R1,#1
 000244 3D4A            ldr R2,LIT_CreateUI+36
 000246 00F000F8        bl _SmartIO_MakeLabel#FtttPc
 00024A 0546            mov R5,R0
 00024C                 .dbline 142
 00024C 0024            movs R4,#0
 00024E 2046            mov R0,R4
 000250 2146            mov R1,R4
 000252 394A            ldr R2,LIT_CreateUI+32
 000254 00F000F8        bl _SmartIO_MakeLabel#FtttPc
 000258 0546            mov R5,R0
 00025A                 .dbline 143
 00025A 2046            mov R0,R4
 00025C 2146            mov R1,R4
 00025E 354A            ldr R2,LIT_CreateUI+28
 000260 2E4B            ldr R3,LIT_CreateUI+4
 000262 00F000F8        bl _SmartIO_MakeTimeSelector#FtttPcPFvttE
 000266 8246            mov R10,R0
 000268                 .dbline 144
 000268 2E49            ldr R1,LIT_CreateUI+12
 00026A 00F000F8        bl _SmartIO_AddText#FstPc
 00026E                 .dbline 145
 00026E 5046            mov R0,R10
 000270 0821            movs R1,#8
 000272 00F000F8        bl _SmartIO_SetSliceIcon#Fstt
 000276                 .dbline 146
 000276 2046            mov R0,R4
 000278 2146            mov R1,R4
 00027A 2D4A            ldr R2,LIT_CreateUI+24
 00027C 274B            ldr R3,LIT_CreateUI+4
 00027E 00F000F8        bl _SmartIO_MakeTimeSelector#FtttPcPFvttE
 000282 8146            mov R9,R0
 000284                 .dbline 147
 000284 2449            ldr R1,LIT_CreateUI+0
 000286 00F000F8        bl _SmartIO_AddText#FstPc
 00028A                 .dbline 148
 00028A 4846            mov R0,R9
 00028C 0821            movs R1,#8
 00028E 00F000F8        bl _SmartIO_SetSliceIcon#Fstt
 000292                 .dbline 149
 000292 0120            movs R0,#1
 000294 00F000F8        bl _SmartIO_MakeSpacerSlice#Fti
 000298                 .dbline 151
 000298 2046            mov R0,R4
 00029A 2146            mov R1,R4
 00029C 234A            ldr R2,LIT_CreateUI+20
 00029E 00F000F8        bl _SmartIO_MakeLabel#FtttPc
 0002A2 8046            mov R8,R0
 0002A4                 .dbline 152
 0002A4 2046            mov R0,R4
 0002A6 2146            mov R1,R4
 0002A8 1F4A            ldr R2,LIT_CreateUI+16
 0002AA 1C4B            ldr R3,LIT_CreateUI+4
 0002AC 00F000F8        bl _SmartIO_MakeTimeSelector#FtttPcPFvttE
 0002B0 0746            mov R7,R0
 0002B2                 .dbline 153
 0002B2 1C49            ldr R1,LIT_CreateUI+12
 0002B4 00F000F8        bl _SmartIO_AddText#FstPc
 0002B8                 .dbline 154
 0002B8 3846            mov R0,R7
 0002BA 0821            movs R1,#8
 0002BC 00F000F8        bl _SmartIO_SetSliceIcon#Fstt
 0002C0                 .dbline 155
 0002C0 2046            mov R0,R4
 0002C2 2146            mov R1,R4
 0002C4 164A            ldr R2,LIT_CreateUI+8
 0002C6 154B            ldr R3,LIT_CreateUI+4
 0002C8 00F000F8        bl _SmartIO_MakeTimeSelector#FtttPcPFvttE
 0002CC 0646            mov R6,R0
 0002CE                 .dbline 156
 0002CE 1249            ldr R1,LIT_CreateUI+0
 0002D0 00F000F8        bl _SmartIO_AddText#FstPc
 0002D4                 .dbline 157
 0002D4 3046            mov R0,R6
 0002D6 0821            movs R1,#8
 0002D8 00F000F8        bl _SmartIO_SetSliceIcon#Fstt
 0002DC                 .dbline 158
 0002DC 0020            movs R0,#0
 0002DE 2946            mov R1,R5
 0002E0 1FFA8AF2        uxth R2,R10
 0002E4 1FFA89F3        uxth R3,R9
 0002E8 1FFA88F4        uxth R4,R8
 0002EC 0094            str R4,[R13,#0]
 0002EE BCB2            uxth R4,R7
 0002F0 0194            str R4,[R13,#+4]
 0002F2 B4B2            uxth R4,R6
 0002F4 0294            str R4,[R13,#+8]
 0002F6 0024            movs R4,#0
 0002F8 0394            str R4,[R13,#+12]
 0002FA 00F000F8        bl _SmartIO_GroupObjects#Fsttz
 0002FE                 .dbline 159
 0002FE 0320            movs R0,#3
 000300 00F000F8        bl _SmartIO_MakeSpacerSlice#Fti
 000304                 .dbline 160
 000304 BBF80200        ldrh R0,[R11,#+2]
 000308 00F000F8        bl _SmartIO_AutoBalance#Fst
 00030C                 .dbline 161
 00030C 00F000F8        bl _SmartIO_SaveCache#Fsv
 000310                 .dbblkend 162
 000310         L50:
 000310 05B0            add R13,R13,#20
 000312 BDE8F08F        pop {R4,R5,R6,R7,R8,R9,R10,R11,PC}
 000316                 .dbfuncend
                        .align4
 000318                 .LITERAL
 000318         LIT_CreateUI:
 000318 87000000        .long _58#A7_c
 00031C 00000000        .long 0x0
 000320 73000000        .long _61#A5_c
 000324 93000000        .long _56#A6_c
 000328 78000000        .long _60#A6_c
 00032C 7E000000        .long _59#A9_c
 000330 8E000000        .long _57#A5_c
 000334 99000000        .long _55#A6_c
 000338 9F000000        .long _54#A10_c
 00033C A9000000        .long _53#A21_c
 000340 08000000        .long _current_light_value#i
 000344 95000000        .paddr _Slider1#Fvt
 000348 BE000000        .long _52#A6_c
 00034C 03000000        .paddr _Button1#Fvt
 000350 C4000000        .long _51#A16_c
 000354         	.ENDLITERAL
 000354                 .dbsym l u10 3 s
 000354                 .dbsym l u6 3 s
 000354                 .dbsym l p3 3 s
 000354                 .dbsym l p2 3 s
 000354                 .dbsym l p1 3 s
 000354                 .dbsym r u2 5 s
 000354                 .dbsym r u7 8 s
 000354                 .dbsym r u3 5 s
 000354                 .dbsym l p0 2 s
 000354                 .dbsym r u1 5 s
 000354                 .dbsym r u9 6 s
 000354                 .dbsym r u8 7 s
 000354                 .dbsym r u5 9 s
 000354                 .dbsym r u4 10 s
 000354                 .dbsym r u0 6 s
 000354                 .dbstacksize 20
 000354                 .dbfunc e Connect_CB _Connect_CB#Fvv fV 164 4324572
 000354         _Connect_CB#Fvv::
 000354                 .dbprevlr 12
 000354 2DE93048        push {R4,R5,R11,LR}
 000358 EB46            mov R11,R13
 00035A                 .dbblock 165
 00035A                 .dbline 166
 00035A 0548            ldr R0,LIT_Connect_CB+4
 00035C FFF750FE        bl _my_printf#FiPcz
 000360                 .dbline 167
 000360 0124            movs R4,#1
 000362 024D            ldr R5,LIT_Connect_CB+0
 000364 2C60            str R4,[R5,#0]
 000366                 .dbblkend 168
 000366         L62:
 000366 BDE83088        pop {R4,R5,R11,PC}
 00036A                 .dbfuncend
                        .align4
 00036C                 .LITERAL
 00036C         LIT_Connect_CB:
 00036C 00000000        .long _connected#i
 000370 64000000        .long _63#A15_c
 000374         	.ENDLITERAL
 000374                 .dbstacksize 0
 000374                 .dbfunc e Disconnect_CB _Disconnect_CB#Fvv fV 170 4324572
 000374         _Disconnect_CB#Fvv::
 000374                 .dbprevlr 12
 000374 2DE93048        push {R4,R5,R11,LR}
 000378 EB46            mov R11,R13
 00037A                 .dbblock 171
 00037A                 .dbline 172
 00037A 0948            ldr R0,LIT_Disconnect_CB+12
 00037C FFF740FE        bl _my_printf#FiPcz
 000380                 .dbline 173
 000380 0124            movs R4,#1
 000382 064D            ldr R5,LIT_Disconnect_CB+8
 000384 2C70            strb R4,[R5,#0]
 000386                 .dbline 174
 000386 0024            movs R4,#0
 000388 034D            ldr R5,LIT_Disconnect_CB+4
 00038A 2C60            str R4,[R5,#0]
 00038C                 .dbline 175
 00038C 014D            ldr R5,LIT_Disconnect_CB+0
 00038E 2C60            str R4,[R5,#0]
 000390                 .dbblkend 176
 000390         L64:
 000390 BDE83088        pop {R4,R5,R11,PC}
 000394                 .dbfuncend
                        .align4
 000394                 .LITERAL
 000394         LIT_Disconnect_CB:
 000394 04000000        .long _cached#i
 000398 00000000        .long _connected#i
 00039C 00000000        .long _SPI_State#h
 0003A0 52000000        .long _65#A18_c
 0003A4         	.ENDLITERAL
 0003A4                 .dbstacksize 0
 0003A4                 .dbfunc e main _main#Fiv fI 178 4324572
 0003A4         ;     last_state -> R5
 0003A4         _main#Fiv::
 0003A4                 .dbprevlr 0
 0003A4 00B5            push {LR}
 0003A6                 .dbblock 179
 0003A6                 .dbline 180
 0003A6 00F030F8        bl _Setup#Fvv
 0003AA                 .dbline 181
 0003AA 00F000F8        bl _SmartIO_GetVersion#FPcv
 0003AE 0446            mov R4,R0
 0003B0 1348            ldr R0,LIT_main+16
 0003B2 2146            mov R1,R4
 0003B4 FFF724FE        bl _my_printf#FiPcz
 0003B8                 .dbline 183
 0003B8 1048            ldr R0,LIT_main+12
 0003BA 0F49            ldr R1,LIT_main+8
 0003BC 00F000F8        bl _SmartIO_Init#FvPFvvEPFvvE
 0003C0                 .dbblock 184
 0003C0                 .dbline 184
 0003C0 0025            movs R5,#0
 0003C2 13E0            b L69
 0003C4         L71:
 0003C4                 .dbline 188
 0003C4 0B4C            ldr R4,LIT_main+4
 0003C6 2478            ldrb R4,[R4,#0]
 0003C8 042C            cmp R4,#4
 0003CA 01D1            bne L74
 0003CC                 .dbline 189
 0003CC 00F000F8        bl _SmartIO_ProcessUserInput#Fvv
 0003D0         L74:
 0003D0         L72:
 0003D0                 .dbline 187
 0003D0 074C            ldr R4,LIT_main+0
 0003D2 2468            ldr R4,[R4,#0]
 0003D4 A542            cmp R5,R4
 0003D6 F5D0            beq L71
 0003D8                 .dbline 191
 0003D8 054C            ldr R4,LIT_main+0
 0003DA 2468            ldr R4,[R4,#0]
 0003DC 24B1            cbz R4,L76
 0003DE                 .dbline 193
 0003DE 0520            movs R0,#5
 0003E0 00F000F8        bl _DelayTenth#Fvj
 0003E4                 .dbline 194
 0003E4 FFF7F2FE        bl _CreateUI#Fv
 0003E8         L76:
 0003E8                 .dbline 196
 0003E8 014C            ldr R4,LIT_main+0
 0003EA 2568            ldr R5,[R4,#0]
 0003EC         L69:
 0003EC                 .dbline 185
 0003EC F0E7            b L72
 0003EE         X0:
 0003EE                 .dbblkend 200
 0003EE                 .dbblkend 200
 0003EE         L66:
 0003EE 00BD            pop {PC}
 0003F0                 .dbfuncend
                        .align4
 0003F0                 .LITERAL
 0003F0         LIT_main:
 0003F0 00000000        .long _connected#i
 0003F4 00000000        .long _SPI_State#h
 0003F8 75030000        .paddr _Disconnect_CB#Fvv
 0003FC 55030000        .paddr _Connect_CB#Fvv
 000400 3D000000        .long _67#A21_c
 000404         	.ENDLITERAL
 000404                 .dbsym r last_state 5 I
 000404                 .dbstacksize 0
 000404                 .dbfunc e putchar _putchar#Fih fI 202 4324572
 000404         ;             ch -> R0
 000404         _putchar#Fih::
 000404                 .dbprevlr -1
 000404                 .dbblock 203
 000404                 .dbline 204
 000404 C0B2            uxtb R0,R0
 000406                 .dbblkend 205
 000406         L78:
 000406 7047            bx R14
 000408                 .dbfuncend
 000408                 .dbsym r ch 0 c p0
 000408                 .dbstacksize 0
 000408                 .dbfunc e getchar _getchar#Fiv fI 207 4324572
 000408         _getchar#Fiv::
 000408                 .dbprevlr -1
 000408                 .dbblock 208
 000408                 .dbblkend 209
 000408         L79:
 000408 7047            bx LR
 00040A                 .dbfuncend
 00040A                 .dbstacksize 0
 00040A                 .dbfunc s Setup _Setup#Fvv fV 211 4324572
 00040A         _Setup#Fvv:
 00040A                 .dbprevlr 12
 00040A 2DE93048        push {R4,R5,R11,LR}
 00040E EB46            mov R11,R13
 000410 82B0            sub R13,R13,#8
 000412                 .dbblock 212
 000412                 .dbline 213
 000412 1848            ldr R0,LIT_Setup$C__Work_newtech_Smart.IO_MCU_App_Dimmer_Demo_ST32F411_JumpStartC_STM32F411_ICCV8_main+16
 000414 1021            movs R1,#16
 000416 0022            movs R2,#0
 000418 0023            movs R3,#0
 00041A 5424            movs R4,#84
 00041C 0094            str R4,[R13,#0]
 00041E 0524            movs R4,#5
 000420 0194            str R4,[R13,#+4]
 000422 00F000F8        bl __Xm_11_JSAPI_CLOCK14_SetSystemClock#FiPus11_JSAPI_CLOCKjjijj
 000426                 .dbline 214
 000426 1448            ldr R0,LIT_Setup$C__Work_newtech_Smart.IO_MCU_App_Dimmer_Demo_ST32F411_JumpStartC_STM32F411_ICCV8_main+20
 000428 0221            movs R1,#2
 00042A 00F000F8        bl __Xm_17_JSAPI_CORTEX_CORE13_SysTick_Timer#FvPus17_JSAPI_CORTEX_COREh
 00042E                 .dbline 219
 00042E 1148            ldr R0,LIT_Setup$C__Work_newtech_Smart.IO_MCU_App_Dimmer_Demo_ST32F411_JumpStartC_STM32F411_ICCV8_main+16
 000430 00F000F8        bl __Xm_11_JSAPI_CLOCK13_GetSysClkFreq#FjPus11_JSAPI_CLOCK
 000434 0446            mov R4,R0
 000436 0E48            ldr R0,LIT_Setup$C__Work_newtech_Smart.IO_MCU_App_Dimmer_Demo_ST32F411_JumpStartC_STM32F411_ICCV8_main+12
 000438 0C4D            ldr R5,LIT_Setup$C__Work_newtech_Smart.IO_MCU_App_Dimmer_Demo_ST32F411_JumpStartC_STM32F411_ICCV8_main+8
 00043A B4FBF5F1        udiv R1,R4,R5
 00043E FFF7DFFD        bl _my_printf#FiPcz
 000442                 .dbline 220
 000442 0948            ldr R0,LIT_Setup$C__Work_newtech_Smart.IO_MCU_App_Dimmer_Demo_ST32F411_JumpStartC_STM32F411_ICCV8_main+4
 000444 0321            movs R1,#3
 000446 42F21072        mov R2,#10000
 00044A 3223            movs R3,#50
 00044C 00F000F8        bl __Xm_11_JSAPI_TIMER7_MakePWM#FiPus11_JSAPI_TIMERijj
 000450                 .dbline 221
 000450 0548            ldr R0,LIT_Setup$C__Work_newtech_Smart.IO_MCU_App_Dimmer_Demo_ST32F411_JumpStartC_STM32F411_ICCV8_main+4
 000452 0449            ldr R1,LIT_Setup$C__Work_newtech_Smart.IO_MCU_App_Dimmer_Demo_ST32F411_JumpStartC_STM32F411_ICCV8_main+0
 000454 0222            movs R2,#2
 000456 0123            movs R3,#1
 000458 00F000F8        bl __Xm_11_JSAPI_TIMER13_SetPinsForPWM#FvPus11_JSAPI_TIMERPus10_JSAPI_GPIOjj
 00045C                 .dbblkend 222
 00045C         L80:
 00045C 02B0            add R13,R13,#8
 00045E BDE83088        pop {R4,R5,R11,PC}
 000462                 .dbfuncend
                        .align4
 000464                 .LITERAL
 000464         LIT_Setup$C__Work_newtech_Smart.IO_MCU_App_Dimmer_Demo_ST32F411_JumpStartC_STM32F411_ICCV8_main:
 000464 00000000        .long _porta#us10_JSAPI_GPIO
 000468 00000000        .long _timer2#us11_JSAPI_TIMER
 00046C 40420F00        .long 0xf4240
 000470 00000000        .long _81#A61_c
 000474 00000000        .long _jsapi_clock#us11_JSAPI_CLOCK
 000478 00000000        .long _jsapi_cortex_core#us17_JSAPI_CORTEX_CORE
 00047C         	.ENDLITERAL
 00047C                 .dbstacksize 8
                        .area lit
 000000         _81#A61_c:
 000000 0D0A496D61676543726166742053544D        .byte 13,10,'I,'m,'a,'g,'e,'C,'r,'a,'f,'t,32,'S,'T,'M
 000010 3332463431312053542D4E75636C656F        .byte 51,50,'F,52,49,49,32,'S,'T,45,'N,'u,'c,'l,'e,'o
 000020 2E2E2E2053797374656D2072756E6E69        .byte 46,46,46,32,'S,'y,'s,'t,'e,'m,32,'r,'u,'n,'n,'i
 000030 6E672061742025644D687A0A00      .byte 'n,'g,32,'a,'t,32,37,'d,'M,'h,'z,10,0
 00003D         _67#A21_c:
 00003D 536D6172742E494F2056657273696F6E        .byte 'S,'m,'a,'r,'t,46,'I,'O,32,'V,'e,'r,'s,'i,'o,'n
 00004D 2025730A00      .byte 32,37,'s,10,0
 000052         _65#A18_c:
 000052 424C4520646973636F6E6E6563746564        .byte 'B,'L,'E,32,'d,'i,'s,'c,'o,'n,'n,'e,'c,'t,'e,'d
 000062 0A00            .byte 10,0
 000064         _63#A15_c:
 000064 424C4520636F6E6E65637465640A00  .byte 'B,'L,'E,32,'c,'o,'n,'n,'e,'c,'t,'e,'d,10,0
 000073         _61#A5_c:
 000073 313A303000      .byte 49,58,48,48,0
 000078         _60#A6_c:
 000078 31383A303000    .byte 49,56,58,48,48,0
 00007E         _59#A9_c:
 00007E 205765656B656E6400      .byte 32,'W,'e,'e,'k,'e,'n,'d,0
 000087         _58#A7_c:
 000087 4F464620617400  .byte 'O,'F,'F,32,'a,'t,0
 00008E         _57#A5_c:
 00008E 303A303000      .byte 48,58,48,48,0
 000093         _56#A6_c:
 000093 4F4E20617400    .byte 'O,'N,32,'a,'t,0
 000099         _55#A6_c:
 000099 31373A303000    .byte 49,55,58,48,48,0
 00009F         _54#A10_c:
 00009F 205765656B6461797300    .byte 32,'W,'e,'e,'k,'d,'a,'y,'s,0
 0000A9         _53#A21_c:
 0000A9 4175746F204F6E2F4F66662053636865        .byte 'A,'u,'t,'o,32,'O,'n,47,'O,'f,'f,32,'S,'c,'h,'e
 0000B9 64756C6500      .byte 'd,'u,'l,'e,0
 0000BE         _52#A6_c:
 0000BE 506F77657200    .byte 'P,'o,'w,'e,'r,0
 0000C4         _51#A16_c:
 0000C4 536D6172742057616C6C20506C756700        .byte 'S,'m,'a,'r,'t,32,'W,'a,'l,'l,32,'P,'l,'u,'g,0
 0000D4         _49#A22_c:
 0000D4 74696D65342073656C65637465642025        .byte 't,'i,'m,'e,52,32,'s,'e,'l,'e,'c,'t,'e,'d,32,37
 0000E4 643A25640A00    .byte 'd,58,37,'d,10,0
 0000EA         _47#A22_c:
 0000EA 74696D65332073656C65637465642025        .byte 't,'i,'m,'e,51,32,'s,'e,'l,'e,'c,'t,'e,'d,32,37
 0000FA 643A25640A00    .byte 'd,58,37,'d,10,0
 000100         _45#A22_c:
 000100 74696D65322073656C65637465642025        .byte 't,'i,'m,'e,50,32,'s,'e,'l,'e,'c,'t,'e,'d,32,37
 000110 643A25640A00    .byte 'd,58,37,'d,10,0
 000116         _43#A22_c:
 000116 74696D65312073656C65637465642025        .byte 't,'i,'m,'e,49,32,'s,'e,'l,'e,'c,'t,'e,'d,32,37
 000126 643A25640A00    .byte 'd,58,37,'d,10,0
 00012C         _41#A21_c:
 00012C 6E756D6265722073656C65637465643A        .byte 'n,'u,'m,'b,'e,'r,32,'s,'e,'l,'e,'c,'t,'e,'d,58
 00013C 2025640A00      .byte 32,37,'d,10,0
 000141         _39#A23_c:
 000141 63616C656E6461722073656C65637465        .byte 'c,'a,'l,'e,'n,'d,'a,'r,32,'s,'e,'l,'e,'c,'t,'e
 000151 643A2025730A00  .byte 'd,58,32,37,'s,10,0
 000158         _37#A23_c:
 000158 70617373776F726420656E7465726564        .byte 'p,'a,'s,'s,'w,'o,'r,'d,32,'e,'n,'t,'e,'r,'e,'d
 000168 3A5B25735D0A00  .byte 58,91,37,'s,93,10,0
 00016F         _35#A21_c:
 00016F 6E756D62657220656E74657265643A5B        .byte 'n,'u,'m,'b,'e,'r,32,'e,'n,'t,'e,'r,'e,'d,58,91
 00017F 25735D0A00      .byte 37,'s,93,10,0
 000184         _33#A20_c:
 000184 746578743220656E74657265643A5B25        .byte 't,'e,'x,'t,50,32,'e,'n,'t,'e,'r,'e,'d,58,91,37
 000194 735D0A00        .byte 's,93,10,0
 000198         _31#A20_c:
 000198 746578743120656E74657265643A5B25        .byte 't,'e,'x,'t,49,32,'e,'n,'t,'e,'r,'e,'d,58,91,37
 0001A8 735D0A00        .byte 's,93,10,0
 0001AC         _29#A17_c:
 0001AC 536C696465723120676574732025640A        .byte 'S,'l,'i,'d,'e,'r,49,32,'g,'e,'t,'s,32,37,'d,10
 0001BC 00              .byte 0
 0001BD         _27#A13_c:
 0001BD 4F4B3120676574732025640A00      .byte 'O,'K,49,32,'g,'e,'t,'s,32,37,'d,10,0
 0001CA         _25#A17_c:
 0001CA 427574746F6E3220676574732025640A        .byte 'B,'u,'t,'t,'o,'n,50,32,'g,'e,'t,'s,32,37,'d,10
 0001DA 00              .byte 0
 0001DB         _21#A17_c:
 0001DB 427574746F6E3120676574732025640A        .byte 'B,'u,'t,'t,'o,'n,49,32,'g,'e,'t,'s,32,37,'d,10
 0001EB 00              .byte 0
