                        .module main.c
                        .area text
 000000                 .dbfile "C:\Work\newtech\Smart.IO\MCU-App\UI Demo ST32F411-JumpStartC\STM32F411-ICCV8\main.c"
                        .area text
 000000                 .dbfile "C:\Work\newtech\Smart.IO\MCU-App\UI Demo ST32F411-JumpStartC\STM32F411-ICCV8\main.c"
 000000                 .dbfunc e Button1 _Button1#Fvt fV 20 -782746067
 000000         ;            val -> R4
 000000         _Button1#Fvt::
 000000                 .dbprevlr 8
 000000 2DE91048        push {R4,R11,LR}
 000004 EB46            mov R11,R13
 000006 0446            mov R4,R0
 000008                 .dbblock 21
 000008                 .dbline 22
 000008 0248            ldr R0,LIT_Button1+0
 00000A A1B2            uxth R1,R4
 00000C 00F000F8        bl _printf#FiPKcz
 000010                 .dbblkend 23
 000010         L19:
 000010 BDE81088        pop {R4,R11,PC}
 000014                 .dbfuncend
                        .align4
 000014                 .LITERAL
 000014         LIT_Button1:
 000014 7F020000        .long _20#A17_c
 000018         	.ENDLITERAL
 000018                 .dbsym r val 4 s p0
 000018                 .dbstacksize 0
 000018                 .dbfunc e Button2 _Button2#Fvt fV 25 3406916
 000018         ;            val -> R4
 000018         _Button2#Fvt::
 000018                 .dbprevlr 8
 000018 2DE91048        push {R4,R11,LR}
 00001C EB46            mov R11,R13
 00001E 0446            mov R4,R0
 000020                 .dbblock 26
 000020                 .dbline 27
 000020 0248            ldr R0,LIT_Button2+0
 000022 A1B2            uxth R1,R4
 000024 00F000F8        bl _printf#FiPKcz
 000028                 .dbblkend 28
 000028         L21:
 000028 BDE81088        pop {R4,R11,PC}
 00002C                 .dbfuncend
                        .align4
 00002C                 .LITERAL
 00002C         LIT_Button2:
 00002C 6E020000        .long _22#A17_c
 000030         	.ENDLITERAL
 000030                 .dbsym r val 4 s p0
 000030                 .dbstacksize 0
 000030                 .dbfunc e OK1 _OK1#Fvt fV 30 3406916
 000030         ;            val -> R4
 000030         _OK1#Fvt::
 000030                 .dbprevlr 8
 000030 2DE91048        push {R4,R11,LR}
 000034 EB46            mov R11,R13
 000036 0446            mov R4,R0
 000038                 .dbblock 31
 000038                 .dbline 32
 000038 0248            ldr R0,LIT_OK1+0
 00003A A1B2            uxth R1,R4
 00003C 00F000F8        bl _printf#FiPKcz
 000040                 .dbblkend 33
 000040         L23:
 000040 BDE81088        pop {R4,R11,PC}
 000044                 .dbfuncend
                        .align4
 000044                 .LITERAL
 000044         LIT_OK1:
 000044 61020000        .long _24#A13_c
 000048         	.ENDLITERAL
 000048                 .dbsym r val 4 s p0
 000048                 .dbstacksize 0
 000048                 .dbfunc e Slider1 _Slider1#Fvt fV 35 3406916
 000048         ;            val -> R4
 000048         _Slider1#Fvt::
 000048                 .dbprevlr 8
 000048 2DE91048        push {R4,R11,LR}
 00004C EB46            mov R11,R13
 00004E 0446            mov R4,R0
 000050                 .dbblock 36
 000050                 .dbline 37
 000050 0248            ldr R0,LIT_Slider1+0
 000052 A1B2            uxth R1,R4
 000054 00F000F8        bl _printf#FiPKcz
 000058                 .dbblkend 38
 000058         L25:
 000058 BDE81088        pop {R4,R11,PC}
 00005C                 .dbfuncend
                        .align4
 00005C                 .LITERAL
 00005C         LIT_Slider1:
 00005C 50020000        .long _26#A17_c
 000060         	.ENDLITERAL
 000060                 .dbsym r val 4 s p0
 000060                 .dbstacksize 0
 000060                 .dbfunc e text_entry1 _text_entry1#FvPc fV 40 3406916
 000060         ;              s -> R4
 000060         _text_entry1#FvPc::
 000060                 .dbprevlr 8
 000060 2DE91048        push {R4,R11,LR}
 000064 EB46            mov R11,R13
 000066 0446            mov R4,R0
 000068                 .dbblock 41
 000068                 .dbline 42
 000068 0248            ldr R0,LIT_text_entry1+0
 00006A 2146            mov R1,R4
 00006C 00F000F8        bl _printf#FiPKcz
 000070                 .dbblkend 43
 000070         L27:
 000070 BDE81088        pop {R4,R11,PC}
 000074                 .dbfuncend
                        .align4
 000074                 .LITERAL
 000074         LIT_text_entry1:
 000074 3C020000        .long _28#A20_c
 000078         	.ENDLITERAL
 000078                 .dbsym r s 4 pc p0
 000078                 .dbstacksize 0
 000078                 .dbfunc e menu_entry _menu_entry#Fvt fV 45 3406916
 000078         ;              i -> R4
 000078         _menu_entry#Fvt::
 000078                 .dbprevlr 8
 000078 2DE91048        push {R4,R11,LR}
 00007C EB46            mov R11,R13
 00007E 0446            mov R4,R0
 000080                 .dbblock 46
 000080                 .dbline 47
 000080 0248            ldr R0,LIT_menu_entry+0
 000082 A1B2            uxth R1,R4
 000084 00F000F8        bl _printf#FiPKcz
 000088                 .dbblkend 48
 000088         L29:
 000088 BDE81088        pop {R4,R11,PC}
 00008C                 .dbfuncend
                        .align4
 00008C                 .LITERAL
 00008C         LIT_menu_entry:
 00008C 26020000        .long _30#A22_c
 000090         	.ENDLITERAL
 000090                 .dbsym r i 4 s p0
 000090                 .dbstacksize 0
 000090                 .dbfunc e checkbox1 _checkbox1#Fvt fV 50 3406916
 000090         ;              i -> R4
 000090         _checkbox1#Fvt::
 000090                 .dbprevlr 8
 000090 2DE91048        push {R4,R11,LR}
 000094 EB46            mov R11,R13
 000096 0446            mov R4,R0
 000098                 .dbblock 51
 000098                 .dbline 52
 000098 0248            ldr R0,LIT_checkbox1+0
 00009A A1B2            uxth R1,R4
 00009C 00F000F8        bl _printf#FiPKcz
 0000A0                 .dbblkend 53
 0000A0         L31:
 0000A0 BDE81088        pop {R4,R11,PC}
 0000A4                 .dbfuncend
                        .align4
 0000A4                 .LITERAL
 0000A4         LIT_checkbox1:
 0000A4 02020000        .long _32#A36_c
 0000A8         	.ENDLITERAL
 0000A8                 .dbsym r i 4 s p0
 0000A8                 .dbstacksize 0
 0000A8                 .dbfunc e radio_buttons1 _radio_buttons1#Fvt fV 55 3406916
 0000A8         ;              i -> R4
 0000A8         _radio_buttons1#Fvt::
 0000A8                 .dbprevlr 8
 0000A8 2DE91048        push {R4,R11,LR}
 0000AC EB46            mov R11,R13
 0000AE 0446            mov R4,R0
 0000B0                 .dbblock 56
 0000B0                 .dbline 57
 0000B0 0248            ldr R0,LIT_radio_buttons1+0
 0000B2 A1B2            uxth R1,R4
 0000B4 00F000F8        bl _printf#FiPKcz
 0000B8                 .dbblkend 58
 0000B8         L33:
 0000B8 BDE81088        pop {R4,R11,PC}
 0000BC                 .dbfuncend
                        .align4
 0000BC                 .LITERAL
 0000BC         LIT_radio_buttons1:
 0000BC E8010000        .long _34#A26_c
 0000C0         	.ENDLITERAL
 0000C0                 .dbsym r i 4 s p0
 0000C0                 .dbstacksize 0
 0000C0                 .dbfunc e text_entry2 _text_entry2#FvPc fV 60 3406916
 0000C0         ;              s -> R4
 0000C0         _text_entry2#FvPc::
 0000C0                 .dbprevlr 8
 0000C0 2DE91048        push {R4,R11,LR}
 0000C4 EB46            mov R11,R13
 0000C6 0446            mov R4,R0
 0000C8                 .dbblock 61
 0000C8                 .dbline 62
 0000C8 0248            ldr R0,LIT_text_entry2+0
 0000CA 2146            mov R1,R4
 0000CC 00F000F8        bl _printf#FiPKcz
 0000D0                 .dbblkend 63
 0000D0         L35:
 0000D0 BDE81088        pop {R4,R11,PC}
 0000D4                 .dbfuncend
                        .align4
 0000D4                 .LITERAL
 0000D4         LIT_text_entry2:
 0000D4 D4010000        .long _36#A20_c
 0000D8         	.ENDLITERAL
 0000D8                 .dbsym r s 4 pc p0
 0000D8                 .dbstacksize 0
 0000D8                 .dbfunc e number_entry1 _number_entry1#FvPc fV 65 3406916
 0000D8         ;              s -> R4
 0000D8         _number_entry1#FvPc::
 0000D8                 .dbprevlr 8
 0000D8 2DE91048        push {R4,R11,LR}
 0000DC EB46            mov R11,R13
 0000DE 0446            mov R4,R0
 0000E0                 .dbblock 66
 0000E0                 .dbline 67
 0000E0 0248            ldr R0,LIT_number_entry1+0
 0000E2 2146            mov R1,R4
 0000E4 00F000F8        bl _printf#FiPKcz
 0000E8                 .dbblkend 68
 0000E8         L37:
 0000E8 BDE81088        pop {R4,R11,PC}
 0000EC                 .dbfuncend
                        .align4
 0000EC                 .LITERAL
 0000EC         LIT_number_entry1:
 0000EC BF010000        .long _38#A21_c
 0000F0         	.ENDLITERAL
 0000F0                 .dbsym r s 4 pc p0
 0000F0                 .dbstacksize 0
 0000F0                 .dbfunc e password_entry1 _password_entry1#FvPc fV 69 3406916
 0000F0         ;              s -> R4
 0000F0         _password_entry1#FvPc::
 0000F0                 .dbprevlr 8
 0000F0 2DE91048        push {R4,R11,LR}
 0000F4 EB46            mov R11,R13
 0000F6 0446            mov R4,R0
 0000F8                 .dbblock 70
 0000F8                 .dbline 71
 0000F8 0248            ldr R0,LIT_password_entry1+0
 0000FA 2146            mov R1,R4
 0000FC 00F000F8        bl _printf#FiPKcz
 000100                 .dbblkend 72
 000100         L39:
 000100 BDE81088        pop {R4,R11,PC}
 000104                 .dbfuncend
                        .align4
 000104                 .LITERAL
 000104         LIT_password_entry1:
 000104 A8010000        .long _40#A23_c
 000108         	.ENDLITERAL
 000108                 .dbsym r s 4 pc p0
 000108                 .dbstacksize 0
 000108                 .dbfunc e calendar_selector1 _calendar_selector1#FvPc fV 74 3406916
 000108         ;              s -> R4
 000108         _calendar_selector1#FvPc::
 000108                 .dbprevlr 8
 000108 2DE91048        push {R4,R11,LR}
 00010C EB46            mov R11,R13
 00010E 0446            mov R4,R0
 000110                 .dbblock 75
 000110                 .dbline 76
 000110 0248            ldr R0,LIT_calendar_selector1+0
 000112 2146            mov R1,R4
 000114 00F000F8        bl _printf#FiPKcz
 000118                 .dbblkend 77
 000118         L41:
 000118 BDE81088        pop {R4,R11,PC}
 00011C                 .dbfuncend
                        .align4
 00011C                 .LITERAL
 00011C         LIT_calendar_selector1:
 00011C 91010000        .long _42#A23_c
 000120         	.ENDLITERAL
 000120                 .dbsym r s 4 pc p0
 000120                 .dbstacksize 0
 000120                 .dbfunc e number_selector1 _number_selector1#Fvj fV 78 3406916
 000120         ;              n -> R4
 000120         _number_selector1#Fvj::
 000120                 .dbprevlr 8
 000120 2DE91048        push {R4,R11,LR}
 000124 EB46            mov R11,R13
 000126 0446            mov R4,R0
 000128                 .dbblock 79
 000128                 .dbline 80
 000128 0248            ldr R0,LIT_number_selector1+0
 00012A 2146            mov R1,R4
 00012C 00F000F8        bl _printf#FiPKcz
 000130                 .dbblkend 81
 000130         L43:
 000130 BDE81088        pop {R4,R11,PC}
 000134                 .dbfuncend
                        .align4
 000134                 .LITERAL
 000134         LIT_number_selector1:
 000134 7C010000        .long _44#A21_c
 000138         	.ENDLITERAL
 000138                 .dbsym r n 4 i p0
 000138                 .dbstacksize 0
 000138                 .dbfunc e time_selector1 _time_selector1#Fvtt fV 83 3406916
 000138         ;             mm -> R4
 000138         ;             hh -> R5
 000138         _time_selector1#Fvtt::
 000138                 .dbprevlr 12
 000138 2DE93048        push {R4,R5,R11,LR}
 00013C EB46            mov R11,R13
 00013E 0546            mov R5,R0
 000140 0C46            mov R4,R1
 000142                 .dbblock 84
 000142                 .dbline 85
 000142 0348            ldr R0,LIT_time_selector1+0
 000144 A9B2            uxth R1,R5
 000146 A2B2            uxth R2,R4
 000148 00F000F8        bl _printf#FiPKcz
 00014C                 .dbblkend 86
 00014C         L45:
 00014C BDE83088        pop {R4,R5,R11,PC}
 000150                 .dbfuncend
                        .align4
 000150                 .LITERAL
 000150         LIT_time_selector1:
 000150 66010000        .long _46#A22_c
 000154         	.ENDLITERAL
 000154                 .dbsym r mm 4 s p1
 000154                 .dbsym r hh 5 s p0
 000154                 .dbstacksize 0
 000154                 .dbfunc e time_selector2 _time_selector2#Fvtt fV 88 3406916
 000154         ;             mm -> R4
 000154         ;             hh -> R5
 000154         _time_selector2#Fvtt::
 000154                 .dbprevlr 12
 000154 2DE93048        push {R4,R5,R11,LR}
 000158 EB46            mov R11,R13
 00015A 0546            mov R5,R0
 00015C 0C46            mov R4,R1
 00015E                 .dbblock 89
 00015E                 .dbline 90
 00015E 0348            ldr R0,LIT_time_selector2+0
 000160 A9B2            uxth R1,R5
 000162 A2B2            uxth R2,R4
 000164 00F000F8        bl _printf#FiPKcz
 000168                 .dbblkend 91
 000168         L47:
 000168 BDE83088        pop {R4,R5,R11,PC}
 00016C                 .dbfuncend
                        .align4
 00016C                 .LITERAL
 00016C         LIT_time_selector2:
 00016C 50010000        .long _48#A22_c
 000170         	.ENDLITERAL
 000170                 .dbsym r mm 4 s p1
 000170                 .dbsym r hh 5 s p0
 000170                 .dbstacksize 0
 000170                 .dbfunc e time_selector3 _time_selector3#Fvtt fV 93 3406916
 000170         ;             mm -> R4
 000170         ;             hh -> R5
 000170         _time_selector3#Fvtt::
 000170                 .dbprevlr 12
 000170 2DE93048        push {R4,R5,R11,LR}
 000174 EB46            mov R11,R13
 000176 0546            mov R5,R0
 000178 0C46            mov R4,R1
 00017A                 .dbblock 94
 00017A                 .dbline 95
 00017A 0348            ldr R0,LIT_time_selector3+0
 00017C A9B2            uxth R1,R5
 00017E A2B2            uxth R2,R4
 000180 00F000F8        bl _printf#FiPKcz
 000184                 .dbblkend 96
 000184         L49:
 000184 BDE83088        pop {R4,R5,R11,PC}
 000188                 .dbfuncend
                        .align4
 000188                 .LITERAL
 000188         LIT_time_selector3:
 000188 3A010000        .long _50#A22_c
 00018C         	.ENDLITERAL
 00018C                 .dbsym r mm 4 s p1
 00018C                 .dbsym r hh 5 s p0
 00018C                 .dbstacksize 0
 00018C                 .dbfunc e time_selector4 _time_selector4#Fvtt fV 98 3406916
 00018C         ;             mm -> R4
 00018C         ;             hh -> R5
 00018C         _time_selector4#Fvtt::
 00018C                 .dbprevlr 12
 00018C 2DE93048        push {R4,R5,R11,LR}
 000190 EB46            mov R11,R13
 000192 0546            mov R5,R0
 000194 0C46            mov R4,R1
 000196                 .dbblock 99
 000196                 .dbline 100
 000196 0348            ldr R0,LIT_time_selector4+0
 000198 A9B2            uxth R1,R5
 00019A A2B2            uxth R2,R4
 00019C 00F000F8        bl _printf#FiPKcz
 0001A0                 .dbblkend 101
 0001A0         L51:
 0001A0 BDE83088        pop {R4,R5,R11,PC}
 0001A4                 .dbfuncend
                        .align4
 0001A4                 .LITERAL
 0001A4         LIT_time_selector4:
 0001A4 24010000        .long _52#A22_c
 0001A8         	.ENDLITERAL
 0001A8                 .dbsym r mm 4 s p1
 0001A8                 .dbsym r hh 5 s p0
 0001A8                 .dbstacksize 0
 0001A8                 .dbfunc e _3pos_buttons1 __3pos_buttons1#Fvt fV 103 3406916
 0001A8         ;              i -> R4
 0001A8         __3pos_buttons1#Fvt::
 0001A8                 .dbprevlr 8
 0001A8 2DE91048        push {R4,R11,LR}
 0001AC EB46            mov R11,R13
 0001AE 0446            mov R4,R0
 0001B0                 .dbblock 104
 0001B0                 .dbline 105
 0001B0 0248            ldr R0,LIT__3pos_buttons1+0
 0001B2 A1B2            uxth R1,R4
 0001B4 00F000F8        bl _printf#FiPKcz
 0001B8                 .dbblkend 106
 0001B8         L53:
 0001B8 BDE81088        pop {R4,R11,PC}
 0001BC                 .dbfuncend
                        .align4
 0001BC                 .LITERAL
 0001BC         LIT__3pos_buttons1:
 0001BC 0A010000        .long _54#A26_c
 0001C0         	.ENDLITERAL
 0001C0                 .dbsym r i 4 s p0
 0001C0                 .dbstacksize 0
 0001C0                 .dbfunc e expandable_list1 _expandable_list1#Fvt fV 108 3406916
 0001C0         ;              i -> R4
 0001C0         _expandable_list1#Fvt::
 0001C0                 .dbprevlr 8
 0001C0 2DE91048        push {R4,R11,LR}
 0001C4 EB46            mov R11,R13
 0001C6 0446            mov R4,R0
 0001C8                 .dbblock 109
 0001C8                 .dbline 110
 0001C8 0248            ldr R0,LIT_expandable_list1+0
 0001CA A1B2            uxth R1,R4
 0001CC 00F000F8        bl _printf#FiPKcz
 0001D0                 .dbblkend 111
 0001D0         L55:
 0001D0 BDE81088        pop {R4,R11,PC}
 0001D4                 .dbfuncend
                        .align4
 0001D4                 .LITERAL
 0001D4         LIT_expandable_list1:
 0001D4 E7000000        .long _56#A35_c
 0001D8         	.ENDLITERAL
 0001D8                 .dbsym r i 4 s p0
 0001D8                 .dbstacksize 0
 0001D8                 .dbfunc e CreateUI _CreateUI#Fvv fV 113 3406916
 0001D8         ;            u10 -> <dead>
 0001D8         ;             p3 -> <dead>
 0001D8         ;             p2 -> <dead>
 0001D8         ;             p1 -> <dead>
 0001D8         ;             u2 -> R5
 0001D8         ;             u7 -> R8
 0001D8         ;             u6 -> R6
 0001D8         ;             u3 -> R5
 0001D8         ;             u1 -> R5
 0001D8         ;             p0 -> R11,2
 0001D8         ;             u9 -> R6
 0001D8         ;             u8 -> R7
 0001D8         ;             u5 -> R9
 0001D8         ;             u4 -> R10
 0001D8         ;             u0 -> R6
 0001D8         _CreateUI#Fvv::
 0001D8                 .dbprevlr 36
 0001D8 2DE9F04F        push {R4,R5,R6,R7,R8,R9,R10,R11,LR}
 0001DC ADF1040B        sub R11,R13,#4
 0001E0 85B0            sub R13,R13,#20
 0001E2                 .dbblock 114
 0001E2                 .dbline 118
 0001E2 6420            movs R0,#100
 0001E4 0321            movs R1,#3
 0001E6 00F000F8        bl _SmartIO_LoadCache#Fsjt
 0001EA                 .dbline 119
 0001EA 00F000F8        bl _SmartIO_MakePage#Ftv
 0001EE ABF80200        strh R0,[R11,#+2]
 0001F2                 .dbline 120
 0001F2 6148            ldr R0,LIT_CreateUI+72
 0001F4 00F000F8        bl _SmartIO_AppTitle#FsPc
 0001F8                 .dbline 121
 0001F8 0024            movs R4,#0
 0001FA 2046            mov R0,R4
 0001FC 2146            mov R1,R4
 0001FE 0122            movs R2,#1
 000200 5C4B            ldr R3,LIT_CreateUI+68
 000202 00F000F8        bl _SmartIO_MakeOnOffButton#FttttPFvtE
 000206 0646            mov R6,R0
 000208                 .dbline 122
 000208 5949            ldr R1,LIT_CreateUI+64
 00020A 00F000F8        bl _SmartIO_AddText#FstPc
 00020E                 .dbline 123
 00020E 3046            mov R0,R6
 000210 0621            movs R1,#6
 000212 00F000F8        bl _SmartIO_SetSliceIcon#Fstt
 000216                 .dbline 124
 000216 0120            movs R0,#1
 000218 0021            movs R1,#0
 00021A 1E22            movs R2,#30
 00021C 534B            ldr R3,LIT_CreateUI+60
 00021E 00F000F8        bl _SmartIO_MakeSlider#FttttPFvtE
 000222 0546            mov R5,R0
 000224                 .dbline 125
 000224 B4B2            uxth R4,R6
 000226 641C            adds R4,R4,#1
 000228 2046            mov R0,R4
 00022A ACB2            uxth R4,R5
 00022C 641C            adds R4,R4,#1
 00022E 2146            mov R1,R4
 000230 0022            movs R2,#0
 000232 00F000F8        bl _SmartIO_EnableIf#Fsttz
 000236                 .dbline 127
 000236 0220            movs R0,#2
 000238 00F000F8        bl _SmartIO_MakeSpacerSlice#Fti
 00023C                 .dbline 128
 00023C 0020            movs R0,#0
 00023E 0121            movs R1,#1
 000240 494A            ldr R2,LIT_CreateUI+56
 000242 00F000F8        bl _SmartIO_MakeLabel#FtttPc
 000246 0546            mov R5,R0
 000248                 .dbline 129
 000248 0024            movs R4,#0
 00024A 2046            mov R0,R4
 00024C 2146            mov R1,R4
 00024E 454A            ldr R2,LIT_CreateUI+52
 000250 00F000F8        bl _SmartIO_MakeLabel#FtttPc
 000254 0546            mov R5,R0
 000256                 .dbline 130
 000256 2046            mov R0,R4
 000258 2146            mov R1,R4
 00025A 414A            ldr R2,LIT_CreateUI+48
 00025C 3F4B            ldr R3,LIT_CreateUI+44
 00025E 00F000F8        bl _SmartIO_MakeTimeSelector#FtttPcPFvttE
 000262 8246            mov R10,R0
 000264                 .dbline 131
 000264 3549            ldr R1,LIT_CreateUI+12
 000266 00F000F8        bl _SmartIO_AddText#FstPc
 00026A                 .dbline 132
 00026A 5046            mov R0,R10
 00026C 0821            movs R1,#8
 00026E 00F000F8        bl _SmartIO_SetSliceIcon#Fstt
 000272                 .dbline 133
 000272 2046            mov R0,R4
 000274 2146            mov R1,R4
 000276 384A            ldr R2,LIT_CreateUI+40
 000278 364B            ldr R3,LIT_CreateUI+36
 00027A 00F000F8        bl _SmartIO_MakeTimeSelector#FtttPcPFvttE
 00027E 8146            mov R9,R0
 000280                 .dbline 134
 000280 2B49            ldr R1,LIT_CreateUI+0
 000282 00F000F8        bl _SmartIO_AddText#FstPc
 000286                 .dbline 135
 000286 4846            mov R0,R9
 000288 0821            movs R1,#8
 00028A 00F000F8        bl _SmartIO_SetSliceIcon#Fstt
 00028E                 .dbline 136
 00028E 0120            movs R0,#1
 000290 00F000F8        bl _SmartIO_MakeSpacerSlice#Fti
 000294                 .dbline 138
 000294 0124            movs R4,#1
 000296 2046            mov R0,R4
 000298 2146            mov R1,R4
 00029A 2D4A            ldr R2,LIT_CreateUI+32
 00029C 00F000F8        bl _SmartIO_MakeCheckboxes#FtttPFvtE
 0002A0 0646            mov R6,R0
 0002A2                 .dbline 139
 0002A2 B4B2            uxth R4,R6
 0002A4 641C            adds R4,R4,#1
 0002A6 2046            mov R0,R4
 0002A8 2849            ldr R1,LIT_CreateUI+28
 0002AA 00F000F8        bl _SmartIO_AddListItem#FttPc
 0002AE                 .dbline 141
 0002AE 0024            movs R4,#0
 0002B0 2046            mov R0,R4
 0002B2 2146            mov R1,R4
 0002B4 244A            ldr R2,LIT_CreateUI+24
 0002B6 00F000F8        bl _SmartIO_MakeLabel#FtttPc
 0002BA 8046            mov R8,R0
 0002BC                 .dbline 142
 0002BC 2046            mov R0,R4
 0002BE 2146            mov R1,R4
 0002C0 204A            ldr R2,LIT_CreateUI+20
 0002C2 1F4B            ldr R3,LIT_CreateUI+16
 0002C4 00F000F8        bl _SmartIO_MakeTimeSelector#FtttPcPFvttE
 0002C8 0746            mov R7,R0
 0002CA                 .dbline 143
 0002CA 1C49            ldr R1,LIT_CreateUI+12
 0002CC 00F000F8        bl _SmartIO_AddText#FstPc
 0002D0                 .dbline 144
 0002D0 3846            mov R0,R7
 0002D2 0821            movs R1,#8
 0002D4 00F000F8        bl _SmartIO_SetSliceIcon#Fstt
 0002D8                 .dbline 145
 0002D8 2046            mov R0,R4
 0002DA 2146            mov R1,R4
 0002DC 164A            ldr R2,LIT_CreateUI+8
 0002DE 154B            ldr R3,LIT_CreateUI+4
 0002E0 00F000F8        bl _SmartIO_MakeTimeSelector#FtttPcPFvttE
 0002E4 0646            mov R6,R0
 0002E6                 .dbline 146
 0002E6 1249            ldr R1,LIT_CreateUI+0
 0002E8 00F000F8        bl _SmartIO_AddText#FstPc
 0002EC                 .dbline 147
 0002EC 3046            mov R0,R6
 0002EE 0821            movs R1,#8
 0002F0 00F000F8        bl _SmartIO_SetSliceIcon#Fstt
 0002F4                 .dbline 148
 0002F4 0020            movs R0,#0
 0002F6 2946            mov R1,R5
 0002F8 1FFA8AF2        uxth R2,R10
 0002FC 1FFA89F3        uxth R3,R9
 000300 1FFA88F4        uxth R4,R8
 000304 0094            str R4,[R13,#0]
 000306 BCB2            uxth R4,R7
 000308 0194            str R4,[R13,#+4]
 00030A B4B2            uxth R4,R6
 00030C 0294            str R4,[R13,#+8]
 00030E 0024            movs R4,#0
 000310 0394            str R4,[R13,#+12]
 000312 00F000F8        bl _SmartIO_GroupObjects#Fsttz
 000316                 .dbline 149
 000316 0320            movs R0,#3
 000318 00F000F8        bl _SmartIO_MakeSpacerSlice#Fti
 00031C                 .dbline 150
 00031C BBF80200        ldrh R0,[R11,#+2]
 000320 00F000F8        bl _SmartIO_AutoBalance#Fst
 000324                 .dbline 151
 000324 00F000F8        bl _SmartIO_SaveCache#Fsv
 000328                 .dbblkend 152
 000328         L57:
 000328 05B0            add R13,R13,#20
 00032A BDE8F08F        pop {R4,R5,R6,R7,R8,R9,R10,R11,PC}
 00032E                 .dbfuncend
                        .align4
 000330                 .LITERAL
 000330         LIT_CreateUI:
 000330 9A000000        .long _65#A7_c
 000334 8D010000        .paddr _time_selector4#Fvtt
 000338 73000000        .long _69#A5_c
 00033C A6000000        .long _63#A6_c
 000340 71010000        .paddr _time_selector3#Fvtt
 000344 78000000        .long _68#A6_c
 000348 7E000000        .long _67#A9_c
 00034C 87000000        .long _66#A19_c
 000350 00000000        .long 0x0
 000354 55010000        .paddr _time_selector2#Fvtt
 000358 A1000000        .long _64#A5_c
 00035C 39010000        .paddr _time_selector1#Fvtt
 000360 AC000000        .long _62#A6_c
 000364 B2000000        .long _61#A10_c
 000368 BC000000        .long _60#A21_c
 00036C 49000000        .paddr _Slider1#Fvt
 000370 D1000000        .long _59#A6_c
 000374 01000000        .paddr _Button1#Fvt
 000378 D7000000        .long _58#A16_c
 00037C         	.ENDLITERAL
 00037C                 .dbsym l u10 3 s
 00037C                 .dbsym l p3 3 s
 00037C                 .dbsym l p2 3 s
 00037C                 .dbsym l p1 3 s
 00037C                 .dbsym r u2 5 s
 00037C                 .dbsym r u7 8 s
 00037C                 .dbsym r u6 6 s
 00037C                 .dbsym r u3 5 s
 00037C                 .dbsym r u1 5 s
 00037C                 .dbsym l p0 2 s
 00037C                 .dbsym r u9 6 s
 00037C                 .dbsym r u8 7 s
 00037C                 .dbsym r u5 9 s
 00037C                 .dbsym r u4 10 s
 00037C                 .dbsym r u0 6 s
 00037C                 .dbstacksize 20
 00037C                 .dbfunc e Connect_CB _Connect_CB#Fvv fV 154 3406916
 00037C         _Connect_CB#Fvv::
 00037C                 .dbprevlr 12
 00037C 2DE93048        push {R4,R5,R11,LR}
 000380 EB46            mov R11,R13
 000382                 .dbblock 155
 000382                 .dbline 156
 000382 0548            ldr R0,LIT_Connect_CB+4
 000384 00F000F8        bl _printf#FiPKcz
 000388                 .dbline 157
 000388 0124            movs R4,#1
 00038A 024D            ldr R5,LIT_Connect_CB+0
 00038C 2C60            str R4,[R5,#0]
 00038E                 .dbblkend 158
 00038E         L70:
 00038E BDE83088        pop {R4,R5,R11,PC}
 000392                 .dbfuncend
                        .align4
 000394                 .LITERAL
 000394         LIT_Connect_CB:
 000394 00000000        .long _connected#i
 000398 64000000        .long _71#A15_c
 00039C         	.ENDLITERAL
 00039C                 .dbstacksize 0
 00039C                 .dbfunc e Disconnect_CB _Disconnect_CB#Fvv fV 160 3406916
 00039C         _Disconnect_CB#Fvv::
 00039C                 .dbprevlr 12
 00039C 2DE93048        push {R4,R5,R11,LR}
 0003A0 EB46            mov R11,R13
 0003A2                 .dbblock 161
 0003A2                 .dbline 162
 0003A2 0748            ldr R0,LIT_Disconnect_CB+8
 0003A4 00F000F8        bl _printf#FiPKcz
 0003A8                 .dbline 163
 0003A8 0124            movs R4,#1
 0003AA 044D            ldr R5,LIT_Disconnect_CB+4
 0003AC 2C70            strb R4,[R5,#0]
 0003AE                 .dbline 164
 0003AE 0024            movs R4,#0
 0003B0 014D            ldr R5,LIT_Disconnect_CB+0
 0003B2 2C60            str R4,[R5,#0]
 0003B4                 .dbblkend 165
 0003B4         L72:
 0003B4 BDE83088        pop {R4,R5,R11,PC}
 0003B8                 .dbfuncend
                        .align4
 0003B8                 .LITERAL
 0003B8         LIT_Disconnect_CB:
 0003B8 00000000        .long _connected#i
 0003BC 00000000        .long _SPI_State#h
 0003C0 52000000        .long _73#A18_c
 0003C4         	.ENDLITERAL
 0003C4                 .dbstacksize 0
 0003C4                 .dbfunc e main _main#Fiv fI 167 3406916
 0003C4         ;     last_state -> R5
 0003C4         _main#Fiv::
 0003C4                 .dbprevlr 0
 0003C4 00B5            push {LR}
 0003C6                 .dbblock 168
 0003C6                 .dbline 169
 0003C6 00F02DF8        bl _Setup#Fvv
 0003CA                 .dbline 170
 0003CA 00F000F8        bl _SmartIO_GetVersion#FPcv
 0003CE 0446            mov R4,R0
 0003D0 1348            ldr R0,LIT_main+16
 0003D2 2146            mov R1,R4
 0003D4 00F000F8        bl _printf#FiPKcz
 0003D8                 .dbline 172
 0003D8 1048            ldr R0,LIT_main+12
 0003DA 0F49            ldr R1,LIT_main+8
 0003DC 00F000F8        bl _SmartIO_Init#FvPFvvEPFvvE
 0003E0                 .dbblock 173
 0003E0                 .dbline 173
 0003E0 0025            movs R5,#0
 0003E2 13E0            b L77
 0003E4         L79:
 0003E4                 .dbline 177
 0003E4 0B4C            ldr R4,LIT_main+4
 0003E6 2478            ldrb R4,[R4,#0]
 0003E8 042C            cmp R4,#4
 0003EA 01D1            bne L82
 0003EC                 .dbline 178
 0003EC 00F000F8        bl _SmartIO_ProcessUserInput#Fvv
 0003F0         L82:
 0003F0         L80:
 0003F0                 .dbline 176
 0003F0 074C            ldr R4,LIT_main+0
 0003F2 2468            ldr R4,[R4,#0]
 0003F4 A542            cmp R5,R4
 0003F6 F5D0            beq L79
 0003F8                 .dbline 180
 0003F8 054C            ldr R4,LIT_main+0
 0003FA 2468            ldr R4,[R4,#0]
 0003FC 24B1            cbz R4,L84
 0003FE                 .dbline 182
 0003FE 0320            movs R0,#3
 000400 00F000F8        bl _DelayTenth#Fvj
 000404                 .dbline 183
 000404 FFF7E8FE        bl _CreateUI#Fvv
 000408         L84:
 000408                 .dbline 185
 000408 014C            ldr R4,LIT_main+0
 00040A 2568            ldr R5,[R4,#0]
 00040C         L77:
 00040C                 .dbline 174
 00040C F0E7            b L80
 00040E         X0:
 00040E                 .dbblkend 188
 00040E                 .dbblkend 188
 00040E         L74:
 00040E 00BD            pop {PC}
 000410                 .dbfuncend
                        .align4
 000410                 .LITERAL
 000410         LIT_main:
 000410 00000000        .long _connected#i
 000414 00000000        .long _SPI_State#h
 000418 9D030000        .paddr _Disconnect_CB#Fvv
 00041C 7D030000        .paddr _Connect_CB#Fvv
 000420 3D000000        .long _75#A21_c
 000424         	.ENDLITERAL
 000424                 .dbsym r last_state 5 I
 000424                 .dbstacksize 0
 000424                 .dbfunc s Setup _Setup#Fvv fV 190 3406916
 000424         _Setup#Fvv:
 000424                 .dbprevlr 12
 000424 2DE93048        push {R4,R5,R11,LR}
 000428 EB46            mov R11,R13
 00042A 83B0            sub R13,R13,#12
 00042C                 .dbblock 191
 00042C                 .dbline 192
 00042C 1948            ldr R0,LIT_Setup$C__Work_newtech_Smart.IO_MCU_App_UI_Demo_ST32F411_JumpStartC_STM32F411_ICCV8_main+8
 00042E 1021            movs R1,#16
 000430 0022            movs R2,#0
 000432 0023            movs R3,#0
 000434 5424            movs R4,#84
 000436 0094            str R4,[R13,#0]
 000438 0524            movs R4,#5
 00043A 0194            str R4,[R13,#+4]
 00043C 00F000F8        bl __Xm_11_JSAPI_CLOCK14_SetSystemClock#FiPus11_JSAPI_CLOCKjjijj
 000440                 .dbline 193
 000440 1748            ldr R0,LIT_Setup$C__Work_newtech_Smart.IO_MCU_App_UI_Demo_ST32F411_JumpStartC_STM32F411_ICCV8_main+20
 000442 0221            movs R1,#2
 000444 00F000F8        bl __Xm_17_JSAPI_CORTEX_CORE13_SysTick_Timer#FvPus17_JSAPI_CORTEX_COREh
 000448                 .dbline 195
 000448 1348            ldr R0,LIT_Setup$C__Work_newtech_Smart.IO_MCU_App_UI_Demo_ST32F411_JumpStartC_STM32F411_ICCV8_main+12
 00044A 144C            ldr R4,LIT_Setup$C__Work_newtech_Smart.IO_MCU_App_UI_Demo_ST32F411_JumpStartC_STM32F411_ICCV8_main+16
 00044C 2146            mov R1,R4
 00044E 0222            movs R2,#2
 000450 0725            movs R5,#7
 000452 2B46            mov R3,R5
 000454 0094            str R4,[R13,#0]
 000456 0324            movs R4,#3
 000458 0194            str R4,[R13,#+4]
 00045A 0295            str R5,[R13,#+8]
 00045C 00F000F8        bl __Xm_11_JSAPI_USART7_SetPins#FvPus11_JSAPI_USARTPus10_JSAPI_GPIOjjPus10_JSAPI_GPIOjj
 000460                 .dbline 196
 000460 0D48            ldr R0,LIT_Setup$C__Work_newtech_Smart.IO_MCU_App_UI_Demo_ST32F411_JumpStartC_STM32F411_ICCV8_main+12
 000462 4FF41651        mov R1,#9600
 000466 0822            movs R2,#8
 000468 0123            movs R3,#1
 00046A 0024            movs R4,#0
 00046C 0094            str R4,[R13,#0]
 00046E 00F000F8        bl __Xm_11_JSAPI_USART9_MakeUSART#FvPus11_JSAPI_USARTjjjh
 000472                 .dbline 198
 000472 0848            ldr R0,LIT_Setup$C__Work_newtech_Smart.IO_MCU_App_UI_Demo_ST32F411_JumpStartC_STM32F411_ICCV8_main+8
 000474 00F000F8        bl __Xm_11_JSAPI_CLOCK13_GetSysClkFreq#FjPus11_JSAPI_CLOCK
 000478 0446            mov R4,R0
 00047A 0548            ldr R0,LIT_Setup$C__Work_newtech_Smart.IO_MCU_App_UI_Demo_ST32F411_JumpStartC_STM32F411_ICCV8_main+4
 00047C 034D            ldr R5,LIT_Setup$C__Work_newtech_Smart.IO_MCU_App_UI_Demo_ST32F411_JumpStartC_STM32F411_ICCV8_main+0
 00047E B4FBF5F1        udiv R1,R4,R5
 000482 00F000F8        bl _printf#FiPKcz
 000486                 .dbblkend 199
 000486         L86:
 000486 03B0            add R13,R13,#12
 000488 BDE83088        pop {R4,R5,R11,PC}
 00048C                 .dbfuncend
                        .align4
 00048C                 .LITERAL
 00048C         LIT_Setup$C__Work_newtech_Smart.IO_MCU_App_UI_Demo_ST32F411_JumpStartC_STM32F411_ICCV8_main:
 00048C 40420F00        .long 0xf4240
 000490 00000000        .long _87#A61_c
 000494 00000000        .long _jsapi_clock#us11_JSAPI_CLOCK
 000498 00000000        .long _usart2#us11_JSAPI_USART
 00049C 00000000        .long _porta#us10_JSAPI_GPIO
 0004A0 00000000        .long _jsapi_cortex_core#us17_JSAPI_CORTEX_CORE
 0004A4         	.ENDLITERAL
 0004A4                 .dbstacksize 12
 0004A4                 .dbfunc e putchar _putchar#Fih fI 201 3406916
 0004A4         ;             ch -> R5
 0004A4         _putchar#Fih::
 0004A4                 .dbprevlr 12
 0004A4 2DE93048        push {R4,R5,R11,LR}
 0004A8 EB46            mov R11,R13
 0004AA 0546            mov R5,R0
 0004AC                 .dbblock 202
 0004AC                 .dbline 203
 0004AC ECB2            uxtb R4,R5
 0004AE 0A2C            cmp R4,#10
 0004B0 03D1            bne L89
 0004B2                 .dbline 204
 0004B2 0548            ldr R0,LIT_putchar+0
 0004B4 0D21            movs R1,#13
 0004B6 00F000F8        bl __Xm_11_JSAPI_USART7_putchar#FiPus11_JSAPI_USARTi
 0004BA         L89:
 0004BA                 .dbline 205
 0004BA 0348            ldr R0,LIT_putchar+0
 0004BC E9B2            uxtb R1,R5
 0004BE 00F000F8        bl __Xm_11_JSAPI_USART7_putchar#FiPus11_JSAPI_USARTi
 0004C2                 .dbline 206
 0004C2 E8B2            uxtb R0,R5
 0004C4                 .dbblkend 207
 0004C4         L88:
 0004C4 BDE83088        pop {R4,R5,R11,PC}
 0004C8                 .dbfuncend
                        .align4
 0004C8                 .LITERAL
 0004C8         LIT_putchar:
 0004C8 00000000        .long _usart2#us11_JSAPI_USART
 0004CC         	.ENDLITERAL
 0004CC                 .dbsym r ch 5 c p0
 0004CC                 .dbstacksize 0
 0004CC                 .dbfunc e getchar _getchar#Fiv fI 209 3406916
 0004CC         _getchar#Fiv::
 0004CC                 .dbprevlr 8
 0004CC 2DE91048        push {R4,R11,LR}
 0004D0 EB46            mov R11,R13
 0004D2                 .dbblock 210
 0004D2                 .dbline 211
 0004D2 0348            ldr R0,LIT_getchar+0
 0004D4 00F000F8        bl __Xm_11_JSAPI_USART7_getchar#FiPus11_JSAPI_USART
 0004D8 0446            mov R4,R0
 0004DA                 .dbblkend 212
 0004DA         L91:
 0004DA BDE81088        pop {R4,R11,PC}
 0004DE                 .dbfuncend
                        .align4
 0004E0                 .LITERAL
 0004E0         LIT_getchar:
 0004E0 00000000        .long _usart2#us11_JSAPI_USART
 0004E4         	.ENDLITERAL
 0004E4                 .dbstacksize 0
                        .area bss
 000000                 .dbfile "C:\Work\newtech\Smart.IO\MCU-App\UI Demo ST32F411-JumpStartC\STM32F411-ICCV8\main.c"
                        .align4
 000000         _connected#i::
 000000                 .blkb 4
 000004                 .dbsym e connected _connected#i I
                        .area lit
 000000         _87#A61_c:
 000000 0D0A496D61676543726166742053544D        .byte 13,10,'I,'m,'a,'g,'e,'C,'r,'a,'f,'t,32,'S,'T,'M
 000010 3332463431312053542D4E75636C656F        .byte 51,50,'F,52,49,49,32,'S,'T,45,'N,'u,'c,'l,'e,'o
 000020 2E2E2E2053797374656D2072756E6E69        .byte 46,46,46,32,'S,'y,'s,'t,'e,'m,32,'r,'u,'n,'n,'i
 000030 6E672061742025644D687A0A00      .byte 'n,'g,32,'a,'t,32,37,'d,'M,'h,'z,10,0
 00003D         _75#A21_c:
 00003D 536D6172742E494F2056657273696F6E        .byte 'S,'m,'a,'r,'t,46,'I,'O,32,'V,'e,'r,'s,'i,'o,'n
 00004D 2025730A00      .byte 32,37,'s,10,0
 000052         _73#A18_c:
 000052 424C4520646973636F6E6E6563746564        .byte 'B,'L,'E,32,'d,'i,'s,'c,'o,'n,'n,'e,'c,'t,'e,'d
 000062 0A00            .byte 10,0
 000064         _71#A15_c:
 000064 424C4520636F6E6E65637465640A00  .byte 'B,'L,'E,32,'c,'o,'n,'n,'e,'c,'t,'e,'d,10,0
 000073         _69#A5_c:
 000073 313A303000      .byte 49,58,48,48,0
 000078         _68#A6_c:
 000078 31383A303000    .byte 49,56,58,48,48,0
 00007E         _67#A9_c:
 00007E 205765656B656E6400      .byte 32,'W,'e,'e,'k,'e,'n,'d,0
 000087         _66#A19_c:
 000087 53616D6520617320275765656B646179        .byte 'S,'a,'m,'e,32,'a,'s,32,39,'W,'e,'e,'k,'d,'a,'y
 000097 732700          .byte 's,39,0
 00009A         _65#A7_c:
 00009A 4F464620617400  .byte 'O,'F,'F,32,'a,'t,0
 0000A1         _64#A5_c:
 0000A1 303A303000      .byte 48,58,48,48,0
 0000A6         _63#A6_c:
 0000A6 4F4E20617400    .byte 'O,'N,32,'a,'t,0
 0000AC         _62#A6_c:
 0000AC 31373A303000    .byte 49,55,58,48,48,0
 0000B2         _61#A10_c:
 0000B2 205765656B6461797300    .byte 32,'W,'e,'e,'k,'d,'a,'y,'s,0
 0000BC         _60#A21_c:
 0000BC 4175746F204F6E2F4F66662053636865        .byte 'A,'u,'t,'o,32,'O,'n,47,'O,'f,'f,32,'S,'c,'h,'e
 0000CC 64756C6500      .byte 'd,'u,'l,'e,0
 0000D1         _59#A6_c:
 0000D1 506F77657200    .byte 'P,'o,'w,'e,'r,0
 0000D7         _58#A16_c:
 0000D7 536D6172742057616C6C20506C756700        .byte 'S,'m,'a,'r,'t,32,'W,'a,'l,'l,32,'P,'l,'u,'g,0
 0000E7         _56#A35_c:
 0000E7 657870616E6461626C65206C69737420        .byte 'e,'x,'p,'a,'n,'d,'a,'b,'l,'e,32,'l,'i,'s,'t,32
 0000F7 656E7472792025642073656C65637465        .byte 'e,'n,'t,'r,'y,32,37,'d,32,'s,'e,'l,'e,'c,'t,'e
 000107 640A00          .byte 'd,10,0
 00010A         _54#A26_c:
 00010A 3320706F7320627574746F6E20256420        .byte 51,32,'p,'o,'s,32,'b,'u,'t,'t,'o,'n,32,37,'d,32
 00011A 73656C65637465640A00    .byte 's,'e,'l,'e,'c,'t,'e,'d,10,0
 000124         _52#A22_c:
 000124 74696D65342073656C65637465642025        .byte 't,'i,'m,'e,52,32,'s,'e,'l,'e,'c,'t,'e,'d,32,37
 000134 643A25640A00    .byte 'd,58,37,'d,10,0
 00013A         _50#A22_c:
 00013A 74696D65332073656C65637465642025        .byte 't,'i,'m,'e,51,32,'s,'e,'l,'e,'c,'t,'e,'d,32,37
 00014A 643A25640A00    .byte 'd,58,37,'d,10,0
 000150         _48#A22_c:
 000150 74696D65322073656C65637465642025        .byte 't,'i,'m,'e,50,32,'s,'e,'l,'e,'c,'t,'e,'d,32,37
 000160 643A25640A00    .byte 'd,58,37,'d,10,0
 000166         _46#A22_c:
 000166 74696D65312073656C65637465642025        .byte 't,'i,'m,'e,49,32,'s,'e,'l,'e,'c,'t,'e,'d,32,37
 000176 643A25640A00    .byte 'd,58,37,'d,10,0
 00017C         _44#A21_c:
 00017C 6E756D6265722073656C65637465643A        .byte 'n,'u,'m,'b,'e,'r,32,'s,'e,'l,'e,'c,'t,'e,'d,58
 00018C 2025640A00      .byte 32,37,'d,10,0
 000191         _42#A23_c:
 000191 63616C656E6461722073656C65637465        .byte 'c,'a,'l,'e,'n,'d,'a,'r,32,'s,'e,'l,'e,'c,'t,'e
 0001A1 643A2025730A00  .byte 'd,58,32,37,'s,10,0
 0001A8         _40#A23_c:
 0001A8 70617373776F726420656E7465726564        .byte 'p,'a,'s,'s,'w,'o,'r,'d,32,'e,'n,'t,'e,'r,'e,'d
 0001B8 3A5B25735D0A00  .byte 58,91,37,'s,93,10,0
 0001BF         _38#A21_c:
 0001BF 6E756D62657220656E74657265643A5B        .byte 'n,'u,'m,'b,'e,'r,32,'e,'n,'t,'e,'r,'e,'d,58,91
 0001CF 25735D0A00      .byte 37,'s,93,10,0
 0001D4         _36#A20_c:
 0001D4 746578743220656E74657265643A5B25        .byte 't,'e,'x,'t,50,32,'e,'n,'t,'e,'r,'e,'d,58,91,37
 0001E4 735D0A00        .byte 's,93,10,0
 0001E8         _34#A26_c:
 0001E8 726164696F20627574746F6E20256420        .byte 'r,'a,'d,'i,'o,32,'b,'u,'t,'t,'o,'n,32,37,'d,32
 0001F8 73656C65637465640A00    .byte 's,'e,'l,'e,'c,'t,'e,'d,10,0
 000202         _32#A36_c:
 000202 636865636B626F78657320286269746D        .byte 'c,'h,'e,'c,'k,'b,'o,'x,'e,'s,32,40,'b,'i,'t,'m
 000212 61736B2920307825782073656C656374        .byte 'a,'s,'k,41,32,48,'x,37,'x,32,'s,'e,'l,'e,'c,'t
 000222 65640A00        .byte 'e,'d,10,0
 000226         _30#A22_c:
 000226 6D656E7520656E747279202564206361        .byte 'm,'e,'n,'u,32,'e,'n,'t,'r,'y,32,37,'d,32,'c,'a
 000236 6C6C65640A00    .byte 'l,'l,'e,'d,10,0
 00023C         _28#A20_c:
 00023C 746578743120656E74657265643A5B25        .byte 't,'e,'x,'t,49,32,'e,'n,'t,'e,'r,'e,'d,58,91,37
 00024C 735D0A00        .byte 's,93,10,0
 000250         _26#A17_c:
 000250 536C696465723120676574732025640A        .byte 'S,'l,'i,'d,'e,'r,49,32,'g,'e,'t,'s,32,37,'d,10
 000260 00              .byte 0
 000261         _24#A13_c:
 000261 4F4B3120676574732025640A00      .byte 'O,'K,49,32,'g,'e,'t,'s,32,37,'d,10,0
 00026E         _22#A17_c:
 00026E 427574746F6E3220676574732025640A        .byte 'B,'u,'t,'t,'o,'n,50,32,'g,'e,'t,'s,32,37,'d,10
 00027E 00              .byte 0
 00027F         _20#A17_c:
 00027F 427574746F6E3120676574732025640A        .byte 'B,'u,'t,'t,'o,'n,49,32,'g,'e,'t,'s,32,37,'d,10
 00028F 00              .byte 0
